target datalayout = "e-m:e-p270:32:32-p271:32:32-p272:64:64-i64:64-i128:128-f80:128-n8:16:32:64-S128"
target triple = "x86_64-pc-linux-gnu"

%struct.anon = type { ptr, i32 }

@libctx = internal global ptr null, align 8
@.str.14 = private unnamed_addr constant [30 x i8] c"../openssl/test/quicapitest.c\00", align 1
@.str.62 = private unnamed_addr constant [5 x i8] c"cctx\00", align 1
@.str.119 = private unnamed_addr constant [11 x i8] c"clientquic\00", align 1
@.str.120 = private unnamed_addr constant [56 x i8] c"SSL_CIPHER_find(clientquic, testciphers[i].cipherbytes)\00", align 1

; Function Attrs: nounwind uwtable
define internal i32 @test_cipher_find() #0 {
  %1 = alloca ptr, align 8
  %2 = alloca ptr, align 8
  %3 = alloca [7 x %struct.anon], align 16
  %4 = alloca i64, align 8
  %5 = alloca i32, align 4
  call void @llvm.lifetime.start.p0(i64 8, ptr %1) #8
  %6 = load ptr, ptr @libctx, align 8, !tbaa !4
  %7 = call ptr @OSSL_QUIC_client_method()
  %8 = call ptr @SSL_CTX_new_ex(ptr noundef %6, ptr noundef null, ptr noundef %7)
  store ptr %8, ptr %1, align 8, !tbaa !15
  call void @llvm.lifetime.start.p0(i64 8, ptr %2) #8
  store ptr null, ptr %2, align 8, !tbaa !17
  call void @llvm.lifetime.start.p0(i64 112, ptr %3) #8
  call void @llvm.memcpy.p0.p0.i64(ptr align 16 %3, ptr align 16 @__const.test_cipher_find.testciphers, i64 112, i1 false)
  call void @llvm.lifetime.start.p0(i64 8, ptr %4) #8
  call void @llvm.lifetime.start.p0(i64 4, ptr %5) #8
  store i32 0, ptr %5, align 4, !tbaa !13
  %9 = load ptr, ptr %1, align 8, !tbaa !15
  %10 = call i32 @test_ptr(ptr noundef @.str.14, i32 noundef 365, ptr noundef @.str.62, ptr noundef %9)
  %11 = icmp ne i32 %10, 0
  br i1 %11, label %13, label %12

12:                                               ; preds = %0
  br label %57

13:                                               ; preds = %0
  %14 = load ptr, ptr %1, align 8, !tbaa !15
  %15 = call ptr @SSL_new(ptr noundef %14)
  store ptr %15, ptr %2, align 8, !tbaa !17
  %16 = load ptr, ptr %2, align 8, !tbaa !17
  %17 = call i32 @test_ptr(ptr noundef @.str.14, i32 noundef 369, ptr noundef @.str.119, ptr noundef %16)
  %18 = icmp ne i32 %17, 0
  br i1 %18, label %20, label %19

19:                                               ; preds = %13
  br label %57

20:                                               ; preds = %13
  store i64 0, ptr %4, align 8, !tbaa !21
  br label %21

21:                                               ; preds = %53, %20
  %22 = load i64, ptr %4, align 8, !tbaa !21
  %23 = icmp ult i64 %22, 7
  br i1 %23, label %24, label %56

24:                                               ; preds = %21
  %25 = load i64, ptr %4, align 8, !tbaa !21
  %26 = getelementptr inbounds nuw [7 x %struct.anon], ptr %3, i64 0, i64 %25
  %27 = getelementptr inbounds nuw %struct.anon, ptr %26, i32 0, i32 1
  %28 = load i32, ptr %27, align 8, !tbaa !35
  %29 = icmp ne i32 %28, 0
  br i1 %29, label %30, label %41

30:                                               ; preds = %24
  %31 = load ptr, ptr %2, align 8, !tbaa !17
  %32 = load i64, ptr %4, align 8, !tbaa !21
  %33 = getelementptr inbounds nuw [7 x %struct.anon], ptr %3, i64 0, i64 %32
  %34 = getelementptr inbounds nuw %struct.anon, ptr %33, i32 0, i32 0
  %35 = load ptr, ptr %34, align 16, !tbaa !37
  %36 = call ptr @SSL_CIPHER_find(ptr noundef %31, ptr noundef %35)
  %37 = call i32 @test_ptr(ptr noundef @.str.14, i32 noundef 375, ptr noundef @.str.120, ptr noundef %36)
  %38 = icmp ne i32 %37, 0
  br i1 %38, label %40, label %39

39:                                               ; preds = %30
  br label %57

40:                                               ; preds = %30
  br label %52

41:                                               ; preds = %24
  %42 = load ptr, ptr %2, align 8, !tbaa !17
  %43 = load i64, ptr %4, align 8, !tbaa !21
  %44 = getelementptr inbounds nuw [7 x %struct.anon], ptr %3, i64 0, i64 %43
  %45 = getelementptr inbounds nuw %struct.anon, ptr %44, i32 0, i32 0
  %46 = load ptr, ptr %45, align 16, !tbaa !37
  %47 = call ptr @SSL_CIPHER_find(ptr noundef %42, ptr noundef %46)
  %48 = call i32 @test_ptr_null(ptr noundef @.str.14, i32 noundef 379, ptr noundef @.str.120, ptr noundef %47)
  %49 = icmp ne i32 %48, 0
  br i1 %49, label %51, label %50

50:                                               ; preds = %41
  br label %57

51:                                               ; preds = %41
  br label %52

52:                                               ; preds = %51, %40
  br label %53

53:                                               ; preds = %52
  %54 = load i64, ptr %4, align 8, !tbaa !21
  %55 = add i64 %54, 1
  store i64 %55, ptr %4, align 8, !tbaa !21
  br label %21, !llvm.loop !38

56:                                               ; preds = %21
  store i32 1, ptr %5, align 4, !tbaa !13
  br label %57

57:                                               ; preds = %56, %50, %39, %19, %12
  %58 = load ptr, ptr %2, align 8, !tbaa !17
  call void @SSL_free(ptr noundef %58)
  %59 = load ptr, ptr %1, align 8, !tbaa !15
  call void @SSL_CTX_free(ptr noundef %59)
  %60 = load i32, ptr %5, align 4, !tbaa !13
  call void @llvm.lifetime.end.p0(i64 4, ptr %5) #8
  call void @llvm.lifetime.end.p0(i64 8, ptr %4) #8
  call void @llvm.lifetime.end.p0(i64 112, ptr %3) #8
  call void @llvm.lifetime.end.p0(i64 8, ptr %2) #8
  call void @llvm.lifetime.end.p0(i64 8, ptr %1) #8
  ret i32 %60
}