; Function Attrs: nounwind uwtable
define internal range(i32 0, 2) i32 @test_cipher_find() #1 {
  %1 = load ptr, ptr @libctx, align 8, !tbaa !4
  %2 = tail call ptr @OSSL_QUIC_client_method() #10
  %3 = tail call ptr @SSL_CTX_new_ex(ptr noundef %1, ptr noundef null, ptr noundef %2) #10
  %4 = tail call i32 @test_ptr(ptr noundef nonnull @.str.14, i32 noundef 365, ptr noundef nonnull @.str.62, ptr noundef %3) #10
  %.not = icmp eq i32 %4, 0
  br i1 %.not, label %.loopexit, label %5

5:                                                ; preds = %0
  %6 = tail call ptr @SSL_new(ptr noundef %3) #10
  %7 = tail call i32 @test_ptr(ptr noundef nonnull @.str.14, i32 noundef 369, ptr noundef nonnull @.str.119, ptr noundef %6) #10
  %.not14 = icmp eq i32 %7, 0
  br i1 %.not14, label %.loopexit, label %.preheader

.preheader:                                       ; preds = %5, %17
  %.01218 = phi i64 [ %18, %17 ], [ 0, %5 ]
  %8 = getelementptr inbounds nuw [7 x %struct.anon], ptr @__const.test_cipher_find.testciphers, i64 0, i64 %.01218
  %9 = getelementptr inbounds nuw i8, ptr %8, i64 8
  %10 = load i32, ptr %9, align 8, !tbaa !26
  %.not15 = icmp eq i32 %10, 0
  %11 = load ptr, ptr %8, align 16, !tbaa !28
  %12 = tail call ptr @SSL_CIPHER_find(ptr noundef %6, ptr noundef %11) #10
  br i1 %.not15, label %15, label %13

13:                                               ; preds = %.preheader
  %14 = tail call i32 @test_ptr(ptr noundef nonnull @.str.14, i32 noundef 375, ptr noundef nonnull @.str.120, ptr noundef %12) #10
  %.not17 = icmp eq i32 %14, 0
  br i1 %.not17, label %.loopexit, label %17

15:                                               ; preds = %.preheader
  %16 = tail call i32 @test_ptr_null(ptr noundef nonnull @.str.14, i32 noundef 379, ptr noundef nonnull @.str.120, ptr noundef %12) #10
  %.not16 = icmp eq i32 %16, 0
  br i1 %.not16, label %.loopexit, label %17

17:                                               ; preds = %13, %15
  %18 = add nuw nsw i64 %.01218, 1
  %exitcond.not = icmp eq i64 %18, 7
  br i1 %exitcond.not, label %.loopexit, label %.preheader, !llvm.loop !29

.loopexit:                                        ; preds = %17, %15, %13, %5, %0
  %.013 = phi ptr [ %6, %5 ], [ null, %0 ], [ %6, %13 ], [ %6, %15 ], [ %6, %17 ]
  %.0 = phi i32 [ 0, %5 ], [ 0, %0 ], [ 1, %17 ], [ 0, %15 ], [ 0, %13 ]
  tail call void @SSL_free(ptr noundef %.013) #10
  tail call void @SSL_CTX_free(ptr noundef %3) #10
  ret i32 %.0
}